(dp0
I0
S'space - sci fi'
p1
sI1
S'american football'
p2
sI2
S'design - production'
p3
sI3
S'japan'
p4
sI4
S'american eduacation'
p5
sI5
S'north carolina'
p6
sI6
S'cities - airports ?'
p7
sI7
I7
sI8
I8
sI9
I9
sI10
I10
sI11
I11
sI12
I12
sI13
I13
sI14
I14
sI15
I15
sI16
S'buildings'
p8
sI17
I17
sI18
I18
sI19
I19
sI20
I20
sI21
I21
sI22
I22
sI23
I23
sI24
S'vehicle - machines'
p9
sI25
S'business - distribution'
p10
sI26
I26
sI27
I27
sI28
I28
sI29
S'music'
p11
sI30
I30
sI31
I31
sI32
I32
sI33
I33
sI34
I34
sI35
I35
sI36
I36
sI37
I37
sI38
I38
sI39
I39
sI40
S'health'
p12
sI41
S'military - emergency'
p13
sI42
I42
sI43
I43
sI44
I44
sI45
I45
sI46
I46
sI47
I47
sI48
I48
sI49
I49
sI50
I50
sI51
I51
sI52
I52
sI53
I53
sI54
I54
sI55
S'clothes - materials'
p14
sI56
I56
sI57
I57
sI58
I58
sI59
I59
sI60
I60
sI61
I61
sI62
I62
sI63
I63
sI64
S'colors - nature'
p15
sI65
I65
sI66
I66
sI67
S'medieval'
p16
sI68
I68
sI69
I69
sI70
I70
sI71
I71
sI72
S'IT'
p17
sI73
S'mountains - nature'
p18
sI74
I74
sI75
I75
sI76
I76
sI77
S'TV - people - fashion'
p19
sI78
S'positive words - marketing'
p20
sI79
I79
sI80
I80
sI81
S'human ressources'
p21
sI82
I82
sI83
S'food'
p22
sI84
I84
sI85
I85
sI86
S'childish - games'
p23
sI87
I87
sI88
I88
sI89
S'nutrition'
p24
sI90
I90
sI91
I91
sI92
I92
sI93
I93
sI94
S'classical music - composers'
p25
sI95
I95
sI96
I96
sI97
S'science'
p26
sI98
I98
sI99
I99
s.