(dp0
I0
S'space - sci fi'
p1
sI1
S'american football'
p2
sI2
S'design - production'
p3
sI3
S'japan'
p4
sI4
S'american eduacation'
p5
sI5
S'north carolina'
p6
sI6
S'cities - airports ?'
p7
sI7
S'undefined'
p8
sI8
g8
sI9
g8
sI10
g8
sI11
g8
sI12
g8
sI13
g8
sI14
g8
sI15
g8
sI16
S'buildings'
p9
sI17
g8
sI18
g8
sI19
g8
sI20
g8
sI21
g8
sI22
g8
sI23
g8
sI24
g8
sI25
S'games'
p10
sI26
g8
sI27
g8
sI28
g8
sI29
S'music'
p11
sI30
g8
sI31
g8
sI32
g8
sI33
g8
sI34
g8
sI35
g8
sI36
g8
sI37
g8
sI38
g8
sI39
g8
sI40
S'health'
p12
sI41
S'military - emergency'
p13
sI42
g8
sI43
g8
sI44
g8
sI45
g8
sI46
g8
sI47
g8
sI48
g8
sI49
g8
sI50
g8
sI51
g8
sI52
g8
sI53
g8
sI54
g8
sI55
S'clothes - materials'
p14
sI56
g8
sI57
g8
sI58
g8
sI59
g8
sI60
g8
sI61
g8
sI62
g8
sI63
g8
sI64
S'colors - nature'
p15
sI65
g8
sI66
g8
sI67
g8
sI68
g8
sI69
g8
sI70
g8
sI71
g8
sI72
S'IT'
p16
sI73
S'mountains - nature'
p17
sI74
g8
sI75
g8
sI76
g8
sI77
S'TV - people - fashion'
p18
sI78
S'positive words - marketing'
p19
sI79
g8
sI80
g8
sI81
S'human ressources'
p20
sI82
g8
sI83
S'food'
p21
sI84
g8
sI85
g8
sI86
g8
sI87
g8
sI88
g8
sI89
S'nutrition'
p22
sI90
g8
sI91
g8
sI92
g8
sI93
g8
sI94
g8
sI95
g8
sI96
g8
sI97
S'science'
p23
sI98
g8
sI99
g8
s.