(dp0
I0
S'space - sci fi'
p1
sI1
S'american football'
p2
sI2
S'design - clothing'
p3
sI3
S'japan'
p4
sI4
S'american eduacation'
p5
sI5
S'north carolina'
p6
sI6
S'cities - airports ?'
p7
sI7
I7
sI8
I8
sI9
I9
sI10
S'books - writting - library'
p8
sI11
I11
sI12
I12
sI13
I13
sI14
S'mathematics'
p9
sI15
I15
sI16
S'buildings'
p10
sI17
I17
sI18
S'specifications'
p11
sI19
I19
sI20
S'german'
p12
sI21
I21
sI22
I22
sI23
I23
sI24
S'vehicle - machines'
p13
sI25
S'business - distribution'
p14
sI26
I26
sI27
S'IT - startups - business'
p15
sI28
I28
sI29
S'music'
p16
sI30
I30
sI31
I31
sI32
I32
sI33
I33
sI34
S"doesn't look english.."
p17
sI35
I35
sI36
I36
sI37
I37
sI38
S'law - agreements'
p18
sI39
I39
sI40
S'health'
p19
sI41
S'security - emergency'
p20
sI42
I42
sI43
I43
sI44
S'IT - telecommunication'
p21
sI45
I45
sI46
I46
sI47
I47
sI48
S'art'
p22
sI49
I49
sI50
I50
sI51
I51
sI52
I52
sI53
I53
sI54
I54
sI55
S'clothes - materials'
p23
sI56
I56
sI57
S'distribution'
p24
sI58
I58
sI59
I59
sI60
I60
sI61
I61
sI62
I62
sI63
I63
sI64
S'colors - nature'
p25
sI65
I65
sI66
I66
sI67
S'medieval'
p26
sI68
I68
sI69
S'sport - competition'
p27
sI70
I70
sI71
I71
sI72
S'IT'
p28
sI73
S'mountains - nature'
p29
sI74
I74
sI75
I75
sI76
I76
sI77
S'TV - people - fashion'
p30
sI78
S'positive words - marketing'
p31
sI79
I79
sI80
I80
sI81
S'human ressources'
p32
sI82
I82
sI83
S'food'
p33
sI84
I84
sI85
I85
sI86
S'childish - games'
p34
sI87
I87
sI88
I88
sI89
S'nutrition'
p35
sI90
I90
sI91
I91
sI92
I92
sI93
I93
sI94
S'classical music - composers'
p36
sI95
I95
sI96
I96
sI97
S'science'
p37
sI98
I98
sI99
I99
s.