(dp0
I0
S'space - sci fi'
p1
sI1
S'american football'
p2
sI2
S'design - clothing'
p3
sI3
S'japan'
p4
sI4
S'american eduacation'
p5
sI5
S'north carolina'
p6
sI6
S'cities - airports ?'
p7
sI7
I7
sI8
I8
sI9
I9
sI10
S'books - writting - library'
p8
sI11
S'arab culture'
p9
sI12
I12
sI13
I13
sI14
S'mathematics'
p10
sI15
I15
sI16
S'buildings'
p11
sI17
I17
sI18
S'specifications'
p12
sI19
I19
sI20
S'german'
p13
sI21
I21
sI22
I22
sI23
I23
sI24
S'vehicle - machines'
p14
sI25
S'business - distribution'
p15
sI26
I26
sI27
S'IT - startups - business'
p16
sI28
I28
sI29
S'music industry'
p17
sI30
I30
sI31
I31
sI32
I32
sI33
I33
sI34
S"doesn't look english.."
p18
sI35
I35
sI36
I36
sI37
I37
sI38
S'law - agreements'
p19
sI39
I39
sI40
S'health'
p20
sI41
S'security - emergency'
p21
sI42
I42
sI43
I43
sI44
S'IT - telecommunication'
p22
sI45
I45
sI46
I46
sI47
I47
sI48
S'art'
p23
sI49
I49
sI50
I50
sI51
I51
sI52
I52
sI53
I53
sI54
I54
sI55
S'clothes - materials'
p24
sI56
I56
sI57
S'distribution'
p25
sI58
I58
sI59
I59
sI60
I60
sI61
I61
sI62
I62
sI63
I63
sI64
S'colors - nature'
p26
sI65
I65
sI66
I66
sI67
S'medieval'
p27
sI68
I68
sI69
S'sport - competition'
p28
sI70
I70
sI71
I71
sI72
S'IT'
p29
sI73
S'mountains - nature'
p30
sI74
I74
sI75
I75
sI76
I76
sI77
S'TV - people - fashion'
p31
sI78
S'positive words - marketing'
p32
sI79
I79
sI80
I80
sI81
S'human ressources'
p33
sI82
I82
sI83
S'food'
p34
sI84
I84
sI85
I85
sI86
S'childish - games'
p35
sI87
I87
sI88
I88
sI89
S'nutrition'
p36
sI90
I90
sI91
I91
sI92
I92
sI93
I93
sI94
S'classical music - composers'
p37
sI95
I95
sI96
I96
sI97
S'science'
p38
sI98
I98
sI99
I99
s.