(dp0
S'all_source_texts/Text1_1070Woerter-en-de-T.mxliff'
p1
(lp2
I12
aI2
aI24
asS'all_source_texts/1844 0010 S&A MY BIG BOOK OF STICKER FUN PRESSOUT_STICKERS SECTION 6-en-fr_ca-CR.mxliff'
p3
(lp4
I17
aI3
aI23
aI15
aI1
asS'all_source_texts/262_GB_produktbrochure_Dies and rools_press (1)-en-ru-T.mxliff'
p5
(lp6
I2
aI1
aI23
asS'all_source_texts/Centax Telecom agreement 1 300915-en-de-T.mxliff'
p7
(lp8
I10
aI5
aI12
aI2
asS'all_source_texts/Vecka 32-6 (426-479)-en-nb_no-T.mxliff'
p9
(lp10
I5
aI20
aI26
aI9
asS'all_source_texts/YTP504 instruction-en-de-T.mxliff'
p11
(lp12
I9
aI1
aI9
asS'all_source_texts/TV-#124290-v1-Vehicle_Rental_Agreement__-_template clean_redl. UvH-en-de-T.mxliff'
p13
(lp14
I19
aI25
aI2
aI5
asS'all_source_texts/Vores ansvar_en-GB-en-it-T.mxliff'
p15
(lp16
I19
aI10
aI26
asS'all_source_texts/Vecka 32-4 (218-329)-en-nb_no-T.mxliff'
p17
(lp18
I12
aI12
aI15
aI12
asS'all_source_texts/ContentMatrix_Final Translation Template_SWEDISH-en-da-T.mxliff'
p19
(lp20
I9
aI26
aI26
asS'all_source_texts/joined-P4054-J2-4-6-8-10-12-14-16-18-20-22-24-en-sv-T.mxliff'
p21
(lp22
I17
aI8
aI13
aI3
aI20
aI21
asS'all_source_texts/Inspiration - tiny gardens_DA_en-GB-en-it-T.mxliff'
p23
(lp24
I20
aI5
aI6
asS'all_source_texts/Vertrag (5)-en-de-T.mxliff'
p25
(lp26
I19
aI25
aI11
asS'all_source_texts/Q & A_en-GB-en-it-T.mxliff'
p27
(lp28
I24
aI15
aI2
asS'all_source_texts/teksmobile.se_sv-SE_pwd43739_1418743604661-en-sv-T.mxliff'
p29
(lp30
I14
aI1
aI13
asS'all_source_texts/Underbilag 3 3 Leverand\xf8rens generelle l\xf8sningsbeskrivelse - OP-en-da-T.mxliff'
p31
(lp32
I2
aI10
aI10
aI12
asS'all_source_texts/tiny gardens by Sprout_en-GB-en-it-T.mxliff'
p33
(lp34
I26
aI13
aI17
aI24
asS'all_source_texts/ELX Weekly Wellness Tips v3-en-da-T.mxliff'
p35
(lp36
I9
aI7
aI20
aI5
asS'all_source_texts/service agreement_draft_for_translation-en-de-T.mxliff'
p37
(lp38
I18
aI8
aI13
asS'all_source_texts/Turkish_Basketball_Clubs_Evaluationprogramme15-16_Repucom_150612_\xdcbersetzten-en-tr-T.mxliff'
p39
(lp40
I22
aI10
aI1
asS'all_source_texts/DOC010915-01092015124758-en-de-T.mxliff'
p41
(lp42
I4
aI18
aI26
asS'all_source_texts/ERS 51 - User Manual - 1.1-en-de-T.mxliff'
p43
(lp44
I6
aI26
aI18
aI2
asS'all_source_texts/Vecka 32-1 (29-80)-en-nb_no-T.mxliff'
p45
(lp46
I20
aI14
aI1
aI11
asS'all_source_texts/BroschA4en_2015_SPEKON_web-en-ar-T.mxliff'
p47
(lp48
I12
aI16
aI27
asS'all_source_texts/Manual-V-en-de-T.mxliff'
p49
(lp50
I14
aI27
aI7
asS'all_source_texts/license_agreement_nexus-en-fr-T.mxliff'
p51
(lp52
I27
aI4
aI12
asS'all_source_texts/babyshop texter vecka 33-5 (156-162)-en-da-T.mxliff'
p53
(lp54
I21
aI26
aI27
aI15
asS'all_source_texts/Sprout_PR_interview_en-GB-en-it-T.mxliff'
p55
(lp56
I18
aI9
aI29
asS'all_source_texts/joined-P3669-J1-3-5-7-9-en-es-T.mxliff'
p57
(lp58
I20
aI24
aI17
aI1
asS'all_source_texts/Vecka 39 - 2 (51-128)-en-nb_no-T.mxliff'
p59
(lp60
I1
aI4
aI26
aI12
asS'all_source_texts/Bushplanet Trademark License-en-de-T.mxliff'
p61
(lp62
I27
aI5
aI23
asS'all_source_texts/Resort Activities-en-fr-T.mxliff'
p63
(lp64
I7
aI27
aI7
asS'all_source_texts/ENG - Basic Modules_Food Intake-Beverages_QNA_V59-MH-en-ko-T.mxliff'
p65
(lp66
I12
aI0
aI4
aI18
asS'all_source_texts/Text variables for e-mail report_Final[1]-en-fr-T.mxliff'
p67
(lp68
I13
aI18
aI16
aI0
asS'all_source_texts/Allg. Hinweise_EN-en-fa-T.mxliff'
p69
(lp70
I22
aI11
aI6
asS'all_source_texts/joined-P2069-J1-2-3-4-en-it-T.mxliff'
p71
(lp72
I6
aI20
aI1
aI1
asS'all_source_texts/joined-P4266-J1-2-en-fr-T.mxliff'
p73
(lp74
I4
aI4
aI15
asS'all_source_texts/CSC - UTMB Ispo Press Conference Press Release 090215 (1)-en-de-T.mxliff'
p75
(lp76
I6
aI23
aI13
aI11
asS'all_source_texts/babyshop texter vecka 33-en-da-T.mxliff'
p77
(lp78
I3
aI17
aI12
asS'all_source_texts/ANR script_Final_Translation Template-deadline 20. april-en-da-T.mxliff'
p79
(lp80
I9
aI8
aI8
aI16
asS'all_source_texts/Text variables for on-screen feedback_Final[1]-en-fr-T.mxliff'
p81
(lp82
I11
aI9
aI4
aI21
asS'all_source_texts/joined-P3686-J1-2-3-4-5-en-de-T.mxliff'
p83
(lp84
I21
aI13
aI7
aI22
asS'all_source_texts/consultancy contract-en-de-T.mxliff'
p85
(lp86
I12
aI1
aI29
asS'all_source_texts/215_GB_produktbrochure_Hammermill-en-ru-T.mxliff'
p87
(lp88
I18
aI25
aI18
asS'all_source_texts/3 Minute Beauty Intro Copy_Translation Template_deadline 20. april-en-da-T.mxliff'
p89
(lp90
I19
aI29
aI12
aI16
asS'all_source_texts/2.2.2 fcc_1200m_kazakhstan-tengizchevroil_dl_intl_2-2_G_EN-en-de-T.mxliff'
p91
(lp92
I7
aI8
aI5
aI7
asS'all_source_texts/russian_name.mxliff'
p93
(lp94
I0
aI4
asS'all_source_texts/joined-P4264-J1-2-3-4-5-en-ar-T.mxliff'
p95
(lp96
I26
aI10
aI24
aI4
asS'all_source_texts/292 GB_ImageBrochure_Aqua_2014-en-ru-T.mxliff'
p97
(lp98
I10
aI1
aI29
asS'all_source_texts/ENG - Triage-Questions_V59-MH-en-ko-T.mxliff'
p99
(lp100
I15
aI15
aI4
asS'all_source_texts/Vecka 32-5 (362-423)-en-nb_no-T.mxliff'
p101
(lp102
I21
aI11
aI17
aI16
asS'all_source_texts/joined-P4255-J1.1-1.2-1.3-1.4-en-fr-T.mxliff'
p103
(lp104
I13
aI26
aI10
aI16
aI6
asS'all_source_texts/Beth\xb9s Blog 3 v3-en-da-T.mxliff'
p105
(lp106
I6
aI11
aI16
aI16
asS'all_source_texts/320_GB_Plant_and_process_controls_ny-en-de-T.mxliff'
p107
(lp108
I18
aI29
aI7
asS'all_source_texts/1844 0010 S&A MY BIG BOOK OF STICKER FUN PRESSOUT_ STICKERS SECTION 5-en-fr_ca-CR.mxliff'
p109
(lp110
I14
aI1
aI16
aI20
aI25
aI20
asS'all_source_texts/Product IQ Quizzes v2-en-da-T.mxliff'
p111
(lp112
I8
aI13
aI9
asS'all_source_texts/Charterhouse Print Management Limited - FINAL-en-de-T.mxliff'
p113
(lp114
I17
aI14
aI9
aI26
asS'all_source_texts/Underbilag 3 3 Leverand\xf8rens generelle l\xf8sningsbeskrivelse - TK-en-da-T.mxliff'
p115
(lp116
I0
aI29
aI14
aI19
asS'all_source_texts/198_GB_ProduktBrochure_VacuumCoater-en-ru-T.mxliff'
p117
(lp118
I24
aI2
aI16
asS'all_source_texts/Sprout_PR_tinygardens_en-GB-en-it-T.mxliff'
p119
(lp120
I17
aI2
aI3
asS'all_source_texts/Underbilag 3 3 Leverand\xf8rens generelle l\xf8sningsbeskrivelse - BU-en-da-T.mxliff'
p121
(lp122
I29
aI12
aI12
aI1
asS'all_source_texts/joined-P4177-J1-2-3-en-de-T.mxliff'
p123
(lp124
I19
aI14
aI26
aI19
asS'all_source_texts/babyshop texter vecka 33-2-en-da-T.mxliff'
p125
(lp126
I12
aI26
aI2
aI15
asS'all_source_texts/babyshop texter vecka 33-en-fi-T.mxliff'
p127
(lp128
I14
aI23
aI11
asS'all_source_texts/1412 Standard English Review-en-ru-T.mxliff'
p129
(lp130
I15
aI9
aI0
asS'all_source_texts/babyshop texter vecka 33-4 (328-353)-en-fi-T.mxliff'
p131
(lp132
I10
aI0
aI29
aI2
asS'all_source_texts/TS-2S iv-EU 3 FEB 2015 WORD-en-nl-T.mxliff'
p133
(lp134
I23
aI18
aI0
aI6
asS'all_source_texts/KMPG-en-no-T.mxliff'
p135
(lp136
I10
aI7
aI20
asS'all_source_texts/Team Sprout_en-GB-en-it-T.mxliff'
p137
(lp138
I25
aI10
aI7
asS'all_source_texts/joined-P4193-J1-2-en-it-T.mxliff'
p139
(lp140
I27
aI12
aI23
asS'all_source_texts/babyshop texter vecka 33-2-en-fi-T.mxliff'
p141
(lp142
I16
aI2
aI18
aI26
asS'all_source_texts/Vecka 39 - 8 (414-442)-en-nb_no-T.mxliff'
p143
(lp144
I10
aI17
aI19
aI18
asS'all_source_texts/joined-P4009-J1-4-7-10-en-da-T.mxliff'
p145
(lp146
I28
aI10
aI8
aI11
asS'all_source_texts/591_GB_produktbrochure_Filter-en-ru-T.mxliff'
p147
(lp148
I15
aI17
aI28
asS'all_source_texts/joined-P4229-J1-2-en-fr-T-2.mxliff'
p149
(lp150
I14
aI16
aI22
aI17
asS'all_source_texts/Vejledning til tiny gardens_en-GB-en-it-T.mxliff'
p151
(lp152
I16
aI7
aI20
aI4
asS'all_source_texts/Vecka 32-7 (481-497)-en-nb_no-T.mxliff'
p153
(lp154
I26
aI22
aI11
aI16
asS'all_source_texts/Customer needs analysis with ratings_Final[1]-en-fr-T.mxliff'
p155
(lp156
I20
aI6
aI0
aI16
asS'all_source_texts/Re-Nutriv Script_Final Translation Template_deadline 20. april-en-da-T.mxliff'
p157
(lp158
I1
aI29
aI7
aI17
asS'all_source_texts/258_GB_produktbrochure_extruder_pet_aqua-en-ru-T.mxliff'
p159
(lp160
I13
aI18
aI23
asS'all_source_texts/joined-P4212-J1-2-en-de-T.mxliff'
p161
(lp162
I10
aI28
aI16
asS'all_source_texts/Employee Survey Questions for translating-en-de-T.mxliff'
p163
(lp164
I10
aI13
aI15
aI17
asS'all_source_texts/1920-0001 Fairy Interiors-en-fr_ca-CR.mxliff'
p165
(lp166
I29
aI28
aI23
asS'all_source_texts/2014-12-22 translations_enGB dacadoo platform-en-ko-T.mxliff'
p167
(lp168
I22
aI22
aI27
aI1
asS'all_source_texts/Persona Cheat Sheets (2)-en-es-T.mxliff'
p169
(lp170
I17
aI12
aI13
asS'all_source_texts/Vecka 39 - 7 (361-410)-en-nb_no-T.mxliff'
p171
(lp172
I17
aI14
aI8
aI20
asS'all_source_texts/joined-P4140-J1-2-3-en-sv-T.mxliff'
p173
(lp174
I1
aI18
aI14
aI9
asS'all_source_texts/217_GB_produktbrochure_Pellet mill-en-ru-T.mxliff'
p175
(lp176
I23
aI14
aI8
asS'all_source_texts/De 12 varianter - blyanten_en-GB-en-it-T.mxliff'
p177
(lp178
I1
aI19
aI28
aI9
asS'all_source_texts/Vecka 32-2 (81-135)-en-nb_no-T.mxliff'
p179
(lp180
I26
aI25
aI15
aI7
asS'all_source_texts/291 GB_ImageBrochure_Petfood_2014-en-ru-T.mxliff'
p181
(lp182
I21
aI15
aI10
asS'all_source_texts/2.1 fcc_1200m_kazakhstan-tengizchevroil_dl_intl_2-2_G_EN-en-de-T.mxliff'
p183
(lp184
I5
aI14
aI24
aI12
asS'all_source_texts/joined-P4072-J1-2-en-sv-T.mxliff'
p185
(lp186
I27
aI28
aI20
asS'all_source_texts/Fichier_devis_trad-en-de-T.mxliff'
p187
(lp188
I16
aI16
aI2
asS'all_source_texts/joined-P3663-J13-14-15-16-17-18-19-20-21-22-23-24-en-nl-T.mxliff'
p189
(lp190
I25
aI3
aI3
aI26
aI16
aI0
asS'all_source_texts/Underbilag 3 3 Leverand\xf8rens generelle l\xf8sningsbeskrivelse - RE-en-da-T.mxliff'
p191
(lp192
I20
aI20
aI19
aI11
asS'all_source_texts/Underbilag 3 3 Leverand\xf8rens generelle l\xf8sningsbeskrivelse - IN-en-da-T.mxliff'
p193
(lp194
I21
aI11
aI9
aI1
asS'all_source_texts/257_GB_produktbrochure_PaddleMixer-en-ru-T.mxliff'
p195
(lp196
I27
aI9
aI2
asS'all_source_texts/Vejledning pelvifine-en-da-T.mxliff'
p197
(lp198
I21
aI5
aI4
asS'all_source_texts/S\xc5DAN G\xd8R DU _en-GB-en-it-T.mxliff'
p199
(lp200
I13
aI17
aI18
aI11
asS'all_source_texts/ilv_presentation_v13.7_141111_ey_ds-2-en-zh-T.mxliff'
p201
(lp202
I6
aI26
aI8
asS'all_source_texts/1844 0010 S&A MY BIG BOOK OF STICKER FUN PRESSOU_ STICKERS SECTION 2-en-fr_ca-CR.mxliff'
p203
(lp204
I23
aI17
aI28
aI2
aI14
aI12
asS'all_source_texts/Vision & Mission2_en-GB-en-it-T.mxliff'
p205
(lp206
I6
aI1
aI18
asS'all_source_texts/CS-915 Manual (REV G)- 9-3-2014 (1)-en-sv-T.mxliff'
p207
(lp208
I4
aI5
aI12
aI26
asS'all_source_texts/BSO_B_WQS_EN-en-fa-T.mxliff'
p209
(lp210
I4
aI9
aI12
asS'all_source_texts/5 2 China Business update-en-zh-T.mxliff'
p211
(lp212
I25
aI2
aI16
aI14
asS'all_source_texts/5 tips fra planteeksperten_en-GB-en-it-T.mxliff'
p213
(lp214
I22
aI4
aI6
aI0
asS'all_source_texts/External microsite_Final[1][2]-en-fr-T.mxliff'
p215
(lp216
I8
aI20
aI21
asS'all_source_texts/261_GB_produktbrochure_Paladin pellet mills_high-en-ru-T.mxliff'
p217
(lp218
I0
aI6
aI9
asS'all_source_texts/Sprout_PR_funfacts_en-GB-en-it-T.mxliff'
p219
(lp220
I8
aI20
aI25
asS'all_source_texts/287_GB_produktbrochure_FeedExpander-en-ru-T.mxliff'
p221
(lp222
I12
aI25
aI12
asS'all_source_texts/joined-P4054-J1-3-5-7-9-11-13-15-17-19-21-23-en-no-T.mxliff'
p223
(lp224
I3
aI3
aI20
aI5
aI15
aI23
asS'all_source_texts/Vecka 39 - 6 (308-357)-en-nb_no-T.mxliff'
p225
(lp226
I18
aI29
aI24
aI14
asS'all_source_texts/ENG - Basic Modules_Food Intake_QNA_V59-MH-en-ko-T.mxliff'
p227
(lp228
I7
aI18
aI10
aI6
asS'all_source_texts/26 EMEA October 8 Launch Release FINAL for translation-en-sv-T.mxliff'
p229
(lp230
I14
aI16
aI18
aI20
asS'all_source_texts/Annexe 18.22-en-fr-T.mxliff'
p231
(lp232
I25
aI17
aI25
asS'all_source_texts/1844-0001 Mega Giant S&A Dinosaurs UK AMENDED-en-fr_ca-CR.mxliff'
p233
(lp234
I9
aI29
aI16
aI26
asS'all_source_texts/271_GB_ProduktBrochure_MicroFluidSystem-en-ru-T.mxliff'
p235
(lp236
I11
aI16
aI21
asS'all_source_texts/BSO_B_EBS_EN-en-fa-T.mxliff'
p237
(lp238
I3
aI28
aI1
asS'all_source_texts/245 GB_ImageBrochure_BioWaste_2014 (1)-en-ru-T.mxliff'
p239
(lp240
I13
aI28
aI6
asS'all_source_texts/1844-0001 MEGA S&A Dinosaurs PLC V4-en-fr_ca-CR.mxliff'
p241
(lp242
I2
aI27
aI1
aI12
asS'all_source_texts/ENG -Other_Nutrition_TranslationsV59-MH-en-ko-T.mxliff'
p243
(lp244
I17
aI24
aI29
asS'all_source_texts/bso_b_Ludwigsburger_EN-en-fa-T.mxliff'
p245
(lp246
I19
aI27
aI24
asS'all_source_texts/214186_Diablos_Translation-en-es-T.mxliff'
p247
(lp248
I11
aI26
aI20
asS'all_source_texts/Sprouts v\xe6rdier_en-GB-en-it-T.mxliff'
p249
(lp250
I28
aI26
aI22
asS'all_source_texts/Today you can watch 360-en-zh-T.mxliff'
p251
(lp252
I5
aI19
aI19
aI6
asS'all_source_texts/Vecka 39 - 4 (192-243)-en-nb_no-T.mxliff'
p253
(lp254
I27
aI16
aI8
aI26
asS'all_source_texts/293_GB_Combi-zone dryer-en-ru-T.mxliff'
p255
(lp256
I8
aI21
aI13
asS'all_source_texts/1844 0010 S&A MY BIG BOOK OF STICKER FUN PRESSOUT_STICKERS SECTION 3-en-fr_ca-CR.mxliff'
p257
(lp258
I17
aI15
aI16
aI3
aI4
asS'all_source_texts/joined-P4184-J1-2-3-en-nb_no-T.mxliff'
p259
(lp260
I23
aI20
aI26
aI20
asS'all_source_texts/HYP IPI _en-en-de-T.mxliff'
p261
(lp262
I8
aI10
aI10
asS'all_source_texts/Vecka 39 - 5 (246-304)-en-nb_no-T.mxliff'
p263
(lp264
I8
aI26
aI1
aI18
asS'all_source_texts/babyshop texter vecka 33-5 (156-162)-en-fi-T.mxliff'
p265
(lp266
I11
aI21
aI4
aI9
asS'all_source_texts/ENG - Basic Modules_Eating Habits_V59-MH-en-ko-T.mxliff'
p267
(lp268
I26
aI4
aI14
aI18
asS'all_source_texts/Hvad er mikrogr\xf8nt_en-GB-en-it-T.mxliff'
p269
(lp270
I6
aI4
aI10
aI9
asS'all_source_texts/Personlig s\xe6tning_en-GB-en-it-T.mxliff'
p271
(lp272
I9
aI9
aI9
asS'all_source_texts/Vecka 39 - 3 (130-190)-en-nb_no-T.mxliff'
p273
(lp274
I18
aI14
aI11
aI18
asS'all_source_texts/BerkeSOFT midi (Einzelanlage) Quick Guide (for Consumer) (4)-en-fr-T.mxliff'
p275
(lp276
I15
aI11
aI16
aI0
asS'all_source_texts/Hausordnung_EN-en-fa-T.mxliff'
p277
(lp278
I27
aI20
aI10
asS'all_source_texts/joined-P3859-J1-4-7-10-13-16-19-22-25-28-en-da-T.mxliff'
p279
(lp280
I2
aI13
aI15
aI9
aI8
asS'all_source_texts/900 GB_Company Profile_2015-en-ru-T.mxliff'
p281
(lp282
I21
aI2
aI6
asS'all_source_texts/Salesfolder Revlonissimo-en-de-T.mxliff'
p283
(lp284
I16
aI12
aI22
asS'all_source_texts/Operating Manual SWI-520-en-de-T.mxliff'
p285
(lp286
I15
aI28
aI3
asS'all_source_texts/Presse_en-GB-en-it-T.mxliff'
p287
(lp288
I14
aI28
aI17
asS'all_source_texts/ContentMatrix_Final Translation Template_deadline 13. march-en-da-T.mxliff'
p289
(lp290
I7
aI25
aI17
aI24
asS'all_source_texts/Beth\xb9s Blog 1 v3-en-da-T.mxliff'
p291
(lp292
I10
aI25
aI16
aI11
asS'all_source_texts/aps_SRM_Ariba_Adapter_Webinar_20150827_EN_\xdcbersetzer-en-de-T.mxliff'
p293
(lp294
I21
aI5
aI3
asS'all_source_texts/Manuel DA TTH 2015-03-06-en-fr-T.mxliff'
p295
(lp296
I14
aI11
aI27
aI21
asS'all_source_texts/Typology of Emblem Reception a-en-de-T.mxliff'
p297
(lp298
I17
aI24
aI28
aI23
asS'all_source_texts/2.2.1 fcc_1200m_kazakhstan-tengizchevroil_dl_intl_2-2_G_EN-en-de-T.mxliff'
p299
(lp300
I27
aI27
aI8
aI15
asS'all_source_texts/1920-0002 Princess PLC-en-fr_ca-CR.mxliff'
p301
(lp302
I9
aI25
aI26
asS'all_source_texts/1920-0001 Fairy PLC-en-fr_ca-CR.mxliff'
p303
(lp304
I5
aI17
aI29
asS'all_source_texts/Beth\xb9s Blog 2 v1-en-da-T.mxliff'
p305
(lp306
I8
aI2
aI23
aI18
asS'all_source_texts/Underbilag 3 3 Leverand\xf8rens generelle l\xf8sningsbeskrivelse - BI-en-da-T.mxliff'
p307
(lp308
I27
aI16
aI16
aI13
asS'all_source_texts/joined-P3897-J1-3-5-7-9-11-13-15-17-19-en-es-T.mxliff'
p309
(lp310
I17
aI26
aI14
aI6
aI3
asS'all_source_texts/1844 0010 S&A MY BIG BOOK OF STICKER FUN PRESSOUT_STICKERS SECTION 1-en-fr_ca-CR.mxliff'
p311
(lp312
I2
aI2
aI8
aI21
aI18
asS'all_source_texts/joined-P3993-J1-2-en-sv-T.mxliff'
p313
(lp314
I2
aI2
aI7
asS'all_source_texts/1920-0002 Princess Interiors-en-fr_ca-CR.mxliff'
p315
(lp316
I18
aI11
aI16
asS'all_source_texts/Sprout_PR_faktaark_en-GB-en-it-T.mxliff'
p317
(lp318
I7
aI17
aI21
asS'all_source_texts/babyshop texter vecka 33-4 (328-353)-en-da-T.mxliff'
p319
(lp320
I10
aI2
aI10
aI20
asS'all_source_texts/quality_dossier_fortigel_b_rev_6_2014 (1)-en-ru-T.mxliff'
p321
(lp322
I11
aI26
aI9
asS'all_source_texts/joined-P4196-J1-2-3-en-it-T.mxliff'
p323
(lp324
I24
aI0
aI8
aI29
asS'all_source_texts/OM-FLEXITHERM 2015-EN1-en-lv-T.mxliff'
p325
(lp326
I8
aI19
aI14
asS'all_source_texts/joined-P3925-J1-2-3-en-no-T.mxliff'
p327
(lp328
I19
aI10
aI18
aI24
asS'all_source_texts/BSO_B_Wormser_EN-en-fa-T.mxliff'
p329
(lp330
I9
aI5
aI16
asS'all_source_texts/joined-P4229-J1-2-en-fr-T.mxliff'
p331
(lp332
I7
aI17
aI14
asS'all_source_texts/printhandler.ashx_PV=0_P...fr_z=257_waccluster=AM3-en-fr-T.mxliff'
p333
(lp334
I5
aI19
aI25
aI23
asS'all_source_texts/Sprout blyanten_en-GB-en-it-T.mxliff'
p335
(lp336
I2
aI8
aI0
asS'all_source_texts/EL GMTC_Final Translation Template (2)_deadline 20. april-en-da-T.mxliff'
p337
(lp338
I13
aI17
aI3
aI13
asS'all_source_texts/babyshop texter vecka 33-3 (162-327)-en-fi-T.mxliff'
p339
(lp340
I17
aI11
aI6
aI26
asS'all_source_texts/eula-en-de-T.mxliff'
p341
(lp342
I1
aI11
aI24
asS'all_source_texts/joined-P4228-J1-2-en-fr-T.mxliff'
p343
(lp344
I18
aI23
aI16
asS'all_source_texts/ExperTemp DPS Product Review-en-fr-T.mxliff'
p345
(lp346
I16
aI4
aI15
asS'all_source_texts/joined-P3787-J1-2-3-4-5-6-en-no-T.mxliff'
p347
(lp348
I10
aI10
aI3
aI3
asS'all_source_texts/Best of the Best Weekly Tips v4-en-da-T.mxliff'
p349
(lp350
I19
aI23
aI27
aI22
asS'all_source_texts/_WL-Contact_Technical_And_Functional_Proposal-1-en-de-T.mxliff'
p351
(lp352
I12
aI5
aI13
asS'all_source_texts/NT3538 pr traduct-en-es-T.mxliff'
p353
(lp354
I2
aI26
aI10
asS'all_source_texts/Welcome Video Script_Final Translation Template_deadline 13. march-en-da-T.mxliff'
p355
(lp356
I13
aI14
aI16
aI9
asS'all_source_texts/ENG - Ziele_V59-MH-en-ko-T.mxliff'
p357
(lp358
I17
aI18
aI2
asS'all_source_texts/da-en-da-T.mxliff'
p359
(lp360
I11
aI3
aI3
asS'all_source_texts/babyshop texter vecka 33-3 (162-327)-en-da-T.mxliff'
p361
(lp362
I15
aI8
aI3
aI0
asS'all_source_texts/SMART Recovery Facilitator M_Version2-en-da-T.mxliff'
p363
(lp364
I7
aI25
aI11
asS'all_source_texts/1844 0010 S&A MY BIG BOOK OF STICKER FUN PRESSOUT_STICKERS SECTION 4-en-fr_ca-CR.mxliff'
p365
(lp366
I29
aI14
aI7
aI24
aI9
asS'all_source_texts/Vecka 39 - 1 (5-50)-en-nb_no-T.mxliff'
p367
(lp368
I22
aI24
aI13
aI8
asS"all_source_texts/Corrue Deseille FP128'15 Rev 3-en-fr-T.mxliff"
p369
(lp370
I10
aI9
aI13
aI20
asS'all_source_texts/CAR006_FIRST_6_CONCEPTS_TO_TRANSLATE_291015-en-da-T.mxliff'
p371
(lp372
I27
aI24
aI11
asS'all_source_texts/BSO Teil B_Zwerchallee_EN-en-fa-T.mxliff'
p373
(lp374
I24
aI28
aI20
asS'all_source_texts/joined-P3782-J1-2-3-en-fr-T.mxliff'
p375
(lp376
I0
aI1
aI23
aI8
asS'all_source_texts/Plant dit papir_en-GB-en-it-T.mxliff'
p377
(lp378
I7
aI1
aI18
asS'all_source_texts/Om Sprout_en-GB-en-it-T.mxliff'
p379
(lp380
I6
aI3
aI17
asS'all_source_texts/Underbilag 3 3 Leverand\xf8rens generelle l\xf8sningsbeskrivelse - PS-en-da-T.mxliff'
p381
(lp382
I1
aI11
aI17
aI10
asS'all_source_texts/290 GB ImageBrochure_Animal_2014-en-ru-T.mxliff'
p383
(lp384
I23
aI3
aI21
asS'all_source_texts/joined-P4250-J1-2-3-en-de-T.mxliff'
p385
(lp386
I6
aI23
aI11
aI10
asS'all_source_texts/content_no-en-no-T.mxliff'
p387
(lp388
I6
aI24
aI21
asS'all_source_texts/Vecka 32-3 (136-182)-en-nb_no-T.mxliff'
p389
(lp390
I8
aI20
aI21
aI6
as.